target datalayout = "e-m:e-p270:32:32-p271:32:32-p272:64:64-i64:64-i128:128-f80:128-n8:16:32:64-S128"
target triple = "x86_64-pc-linux-gnu"

%struct.slurmdb_used_limits_t = type { i32, ptr, i32, i32, ptr, ptr, ptr, ptr, i32 }

@slurmctld_tres_cnt = external global i32, align 4
@.str.2 = private unnamed_addr constant [14 x i8] c"acct_policy.c\00", align 1
@__func__.acct_policy_get_acct_used_limits = private unnamed_addr constant [33 x i8] c"acct_policy_get_acct_used_limits\00", align 1

; Function Attrs: nounwind uwtable
define dso_local ptr @acct_policy_get_acct_used_limits(ptr noundef %0, ptr noundef %1) #0 {
  %3 = alloca ptr, align 8
  %4 = alloca ptr, align 8
  %5 = alloca ptr, align 8
  %6 = alloca i32, align 4
  store ptr %0, ptr %3, align 8
  store ptr %1, ptr %4, align 8
  call void @llvm.lifetime.start.p0(i64 8, ptr %5) #8
  %7 = load ptr, ptr %3, align 8
  %8 = load ptr, ptr %7, align 8
  %9 = icmp ne ptr %8, null
  br i1 %9, label %13, label %10

10:                                               ; preds = %2
  %11 = call ptr @list_create(ptr noundef @slurmdb_destroy_used_limits)
  %12 = load ptr, ptr %3, align 8
  store ptr %11, ptr %12, align 8
  br label %13

13:                                               ; preds = %10, %2
  %14 = load ptr, ptr %3, align 8
  %15 = load ptr, ptr %14, align 8
  %16 = load ptr, ptr %4, align 8
  %17 = call ptr @list_find_first(ptr noundef %15, ptr noundef @_find_used_limits_for_acct, ptr noundef %16)
  store ptr %17, ptr %5, align 8
  %18 = icmp ne ptr %17, null
  br i1 %18, label %42, label %19

19:                                               ; preds = %13
  call void @llvm.lifetime.start.p0(i64 4, ptr %6) #8
  %20 = load i32, ptr @slurmctld_tres_cnt, align 4
  %21 = sext i32 %20 to i64
  %22 = mul i64 8, %21
  %23 = trunc i64 %22 to i32
  store i32 %23, ptr %6, align 4
  %24 = call ptr @slurm_xcalloc(i64 noundef 1, i64 noundef 64, i1 noundef zeroext true, i1 noundef zeroext false, ptr noundef @.str.2, i32 noundef 5288, ptr noundef @__func__.acct_policy_get_acct_used_limits)
  store ptr %24, ptr %5, align 8
  %25 = load ptr, ptr %4, align 8
  %26 = call ptr @xstrdup(ptr noundef %25)
  %27 = load ptr, ptr %5, align 8
  %28 = getelementptr inbounds nuw %struct.slurmdb_used_limits_t, ptr %27, i32 0, i32 1
  store ptr %26, ptr %28, align 8
  %29 = load i32, ptr %6, align 4
  %30 = sext i32 %29 to i64
  %31 = call ptr @slurm_xcalloc(i64 noundef 1, i64 noundef %30, i1 noundef zeroext true, i1 noundef zeroext false, ptr noundef @.str.2, i32 noundef 5291, ptr noundef @__func__.acct_policy_get_acct_used_limits)
  %32 = load ptr, ptr %5, align 8
  %33 = getelementptr inbounds nuw %struct.slurmdb_used_limits_t, ptr %32, i32 0, i32 4
  store ptr %31, ptr %33, align 8
  %34 = load i32, ptr %6, align 4
  %35 = sext i32 %34 to i64
  %36 = call ptr @slurm_xcalloc(i64 noundef 1, i64 noundef %35, i1 noundef zeroext true, i1 noundef zeroext false, ptr noundef @.str.2, i32 noundef 5292, ptr noundef @__func__.acct_policy_get_acct_used_limits)
  %37 = load ptr, ptr %5, align 8
  %38 = getelementptr inbounds nuw %struct.slurmdb_used_limits_t, ptr %37, i32 0, i32 5
  store ptr %36, ptr %38, align 8
  %39 = load ptr, ptr %3, align 8
  %40 = load ptr, ptr %39, align 8
  %41 = load ptr, ptr %5, align 8
  call void @list_append(ptr noundef %40, ptr noundef %41)
  call void @llvm.lifetime.end.p0(i64 4, ptr %6) #8
  br label %42

42:                                               ; preds = %19, %13
  %43 = load ptr, ptr %5, align 8
  call void @llvm.lifetime.end.p0(i64 8, ptr %5) #8
  ret ptr %43
}