; Function Attrs: nounwind uwtable
define dso_local ptr @acct_policy_get_acct_used_limits(ptr noundef captures(none) %0, ptr noundef %1) local_unnamed_addr #0 {
  %3 = load ptr, ptr %0, align 8
  %.not = icmp eq ptr %3, null
  br i1 %.not, label %4, label %6

4:                                                ; preds = %2
  %5 = tail call ptr @list_create(ptr noundef nonnull @slurmdb_destroy_used_limits) #15
  store ptr %5, ptr %0, align 8
  br label %6

6:                                                ; preds = %4, %2
  %7 = phi ptr [ %5, %4 ], [ %3, %2 ]
  %8 = tail call ptr @list_find_first(ptr noundef %7, ptr noundef nonnull @_find_used_limits_for_acct, ptr noundef %1) #15
  %.not13 = icmp eq ptr %8, null
  br i1 %.not13, label %9, label %21

9:                                                ; preds = %6
  %10 = load i32, ptr @slurmctld_tres_cnt, align 4
  %11 = shl i32 %10, 3
  %12 = tail call ptr @slurm_xcalloc(i64 noundef 1, i64 noundef 64, i1 noundef zeroext true, i1 noundef zeroext false, ptr noundef nonnull @.str.2, i32 noundef 5288, ptr noundef nonnull @__func__.acct_policy_get_acct_used_limits) #15
  %13 = tail call ptr @xstrdup(ptr noundef %1) #15
  %14 = getelementptr inbounds nuw i8, ptr %12, i64 8
  store ptr %13, ptr %14, align 8
  %15 = sext i32 %11 to i64
  %16 = tail call ptr @slurm_xcalloc(i64 noundef 1, i64 noundef %15, i1 noundef zeroext true, i1 noundef zeroext false, ptr noundef nonnull @.str.2, i32 noundef 5291, ptr noundef nonnull @__func__.acct_policy_get_acct_used_limits) #15
  %17 = getelementptr inbounds nuw i8, ptr %12, i64 24
  store ptr %16, ptr %17, align 8
  %18 = tail call ptr @slurm_xcalloc(i64 noundef 1, i64 noundef %15, i1 noundef zeroext true, i1 noundef zeroext false, ptr noundef nonnull @.str.2, i32 noundef 5292, ptr noundef nonnull @__func__.acct_policy_get_acct_used_limits) #15
  %19 = getelementptr inbounds nuw i8, ptr %12, i64 32
  store ptr %18, ptr %19, align 8
  %20 = load ptr, ptr %0, align 8
  tail call void @list_append(ptr noundef %20, ptr noundef %12) #15
  br label %21

21:                                               ; preds = %9, %6
  %.0 = phi ptr [ %8, %6 ], [ %12, %9 ]
  ret ptr %.0
}